target datalayout = "e-m:e-p270:32:32-p271:32:32-p272:64:64-i64:64-i128:128-f80:128-n8:16:32:64-S128"
target triple = "x86_64-pc-linux-gnu"

%"class.std::__cxx11::basic_string" = type { %"struct.std::__cxx11::basic_string<char>::_Alloc_hider", i64, %union.anon }
%"struct.std::__cxx11::basic_string<char>::_Alloc_hider" = type { ptr }
%union.anon = type { i64, [8 x i8] }
%"struct.osgeo::proj::metadata::utf8_to_lower" = type { ptr, i8 }

; Function Attrs: mustprogress nounwind uwtable
define internal noundef zeroext i1 @_ZN5osgeo4proj8metadataL13isIgnoredCharEc(i8 noundef signext %0) #3 {
  %2 = alloca i8, align 1
  store i8 %0, ptr %2, align 1
  %3 = load i8, ptr %2, align 1
  %4 = sext i8 %3 to i32
  %5 = icmp eq i32 %4, 32
  br i1 %5, label %38, label %6

6:                                                ; preds = %1
  %7 = load i8, ptr %2, align 1
  %8 = sext i8 %7 to i32
  %9 = icmp eq i32 %8, 95
  br i1 %9, label %38, label %10

10:                                               ; preds = %6
  %11 = load i8, ptr %2, align 1
  %12 = sext i8 %11 to i32
  %13 = icmp eq i32 %12, 45
  br i1 %13, label %38, label %14

14:                                               ; preds = %10
  %15 = load i8, ptr %2, align 1
  %16 = sext i8 %15 to i32
  %17 = icmp eq i32 %16, 47
  br i1 %17, label %38, label %18

18:                                               ; preds = %14
  %19 = load i8, ptr %2, align 1
  %20 = sext i8 %19 to i32
  %21 = icmp eq i32 %20, 40
  br i1 %21, label %38, label %22

22:                                               ; preds = %18
  %23 = load i8, ptr %2, align 1
  %24 = sext i8 %23 to i32
  %25 = icmp eq i32 %24, 41
  br i1 %25, label %38, label %26

26:                                               ; preds = %22
  %27 = load i8, ptr %2, align 1
  %28 = sext i8 %27 to i32
  %29 = icmp eq i32 %28, 46
  br i1 %29, label %38, label %30

30:                                               ; preds = %26
  %31 = load i8, ptr %2, align 1
  %32 = sext i8 %31 to i32
  %33 = icmp eq i32 %32, 38
  br i1 %33, label %38, label %34

34:                                               ; preds = %30
  %35 = load i8, ptr %2, align 1
  %36 = sext i8 %35 to i32
  %37 = icmp eq i32 %36, 44
  br label %38

38:                                               ; preds = %34, %30, %26, %22, %18, %14, %10, %6, %1
  %39 = phi i1 [ true, %30 ], [ true, %26 ], [ true, %22 ], [ true, %18 ], [ true, %14 ], [ true, %10 ], [ true, %6 ], [ true, %1 ], [ %37, %34 ]
  ret i1 %39
}

; Function Attrs: mustprogress nounwind uwtable
define internal noundef ptr @_ZN5osgeo4proj8metadataL21get_ascii_replacementEPKc(ptr noundef %0) #3 {
  %2 = alloca ptr, align 8
  %3 = alloca ptr, align 8
  %4 = alloca ptr, align 8
  %5 = alloca ptr, align 8
  %6 = alloca ptr, align 8
  %7 = alloca ptr, align 8
  store ptr %0, ptr %3, align 8
  store ptr @_ZN5osgeo4proj8metadataL17map_utf8_to_lowerE, ptr %4, align 8
  store ptr @_ZN5osgeo4proj8metadataL17map_utf8_to_lowerE, ptr %5, align 8
  store ptr getelementptr inbounds (%"struct.osgeo::proj::metadata::utf8_to_lower", ptr @_ZN5osgeo4proj8metadataL17map_utf8_to_lowerE, i64 10), ptr %6, align 8
  br label %8

8:                                                ; preds = %38, %1
  %9 = load ptr, ptr %5, align 8
  %10 = load ptr, ptr %6, align 8
  %11 = icmp ne ptr %9, %10
  br i1 %11, label %12, label %41

12:                                               ; preds = %8
  %13 = load ptr, ptr %5, align 8
  store ptr %13, ptr %7, align 8
  %14 = load ptr, ptr %3, align 8
  %15 = load i8, ptr %14, align 1
  %16 = sext i8 %15 to i32
  %17 = load ptr, ptr %7, align 8
  %18 = getelementptr inbounds %"struct.osgeo::proj::metadata::utf8_to_lower", ptr %17, i32 0, i32 0
  %19 = load ptr, ptr %18, align 8
  %20 = getelementptr inbounds i8, ptr %19, i64 0
  %21 = load i8, ptr %20, align 1
  %22 = sext i8 %21 to i32
  %23 = icmp eq i32 %16, %22
  br i1 %23, label %24, label %37

24:                                               ; preds = %12
  %25 = load ptr, ptr %3, align 8
  %26 = load ptr, ptr %7, align 8
  %27 = getelementptr inbounds %"struct.osgeo::proj::metadata::utf8_to_lower", ptr %26, i32 0, i32 0
  %28 = load ptr, ptr %27, align 8
  %29 = load ptr, ptr %7, align 8
  %30 = getelementptr inbounds %"struct.osgeo::proj::metadata::utf8_to_lower", ptr %29, i32 0, i32 0
  %31 = load ptr, ptr %30, align 8
  %32 = call i64 @strlen(ptr noundef %31) #8
  %33 = call i32 @strncmp(ptr noundef %25, ptr noundef %28, i64 noundef %32) #8
  %34 = icmp eq i32 %33, 0
  br i1 %34, label %35, label %37

35:                                               ; preds = %24
  %36 = load ptr, ptr %7, align 8
  store ptr %36, ptr %2, align 8
  br label %42

37:                                               ; preds = %24, %12
  br label %38

38:                                               ; preds = %37
  %39 = load ptr, ptr %5, align 8
  %40 = getelementptr inbounds %"struct.osgeo::proj::metadata::utf8_to_lower", ptr %39, i32 1
  store ptr %40, ptr %5, align 8
  br label %8

41:                                               ; preds = %8
  store ptr null, ptr %2, align 8
  br label %42

42:                                               ; preds = %41, %35
  %43 = load ptr, ptr %2, align 8
  ret ptr %43
}

; Function Attrs: mustprogress uwtable
define hidden void @_ZN5osgeo4proj8metadata10Identifier16canonicalizeNameERKNSt7__cxx1112basic_stringIcSt11char_traitsIcESaIcEEE(ptr dead_on_unwind noalias writable sret(%"class.std::__cxx11::basic_string") align 8 %0, ptr noundef nonnull align 8 dereferenceable(32) %1) #0 align 2 personality ptr @__gxx_personality_v0 {
  %3 = alloca ptr, align 8
  %4 = alloca ptr, align 8
  %5 = alloca i1, align 1
  %6 = alloca ptr, align 8
  %7 = alloca i64, align 8
  %8 = alloca i8, align 1
  %9 = alloca ptr, align 8
  %10 = alloca ptr, align 8
  %11 = alloca i32, align 4
  store ptr %0, ptr %3, align 8
  store ptr %1, ptr %4, align 8
  store i1 false, ptr %5, align 1
  call void @_ZNSt7__cxx1112basic_stringIcSt11char_traitsIcESaIcEEC1Ev(ptr noundef nonnull align 8 dereferenceable(32) %0) #19
  %12 = load ptr, ptr %4, align 8
  %13 = call noundef ptr @_ZNKSt7__cxx1112basic_stringIcSt11char_traitsIcESaIcEE5c_strEv(ptr noundef nonnull align 8 dereferenceable(32) %12) #19
  store ptr %13, ptr %6, align 8
  store i64 0, ptr %7, align 8
  br label %14

14:                                               ; preds = %131, %2
  %15 = load ptr, ptr %6, align 8
  %16 = load i64, ptr %7, align 8
  %17 = getelementptr inbounds i8, ptr %15, i64 %16
  %18 = load i8, ptr %17, align 1
  %19 = sext i8 %18 to i32
  %20 = icmp ne i32 %19, 0
  br i1 %20, label %21, label %134

21:                                               ; preds = %14
  %22 = load ptr, ptr %6, align 8
  %23 = load i64, ptr %7, align 8
  %24 = getelementptr inbounds i8, ptr %22, i64 %23
  %25 = load i8, ptr %24, align 1
  store i8 %25, ptr %8, align 1
  %26 = load i8, ptr %8, align 1
  %27 = sext i8 %26 to i32
  %28 = icmp eq i32 %27, 32
  br i1 %28, label %29, label %48

29:                                               ; preds = %21
  %30 = load ptr, ptr %6, align 8
  %31 = load i64, ptr %7, align 8
  %32 = add i64 %31, 1
  %33 = getelementptr inbounds i8, ptr %30, i64 %32
  %34 = load i8, ptr %33, align 1
  %35 = sext i8 %34 to i32
  %36 = icmp eq i32 %35, 43
  br i1 %36, label %37, label %48

37:                                               ; preds = %29
  %38 = load ptr, ptr %6, align 8
  %39 = load i64, ptr %7, align 8
  %40 = add i64 %39, 2
  %41 = getelementptr inbounds i8, ptr %38, i64 %40
  %42 = load i8, ptr %41, align 1
  %43 = sext i8 %42 to i32
  %44 = icmp eq i32 %43, 32
  br i1 %44, label %45, label %48

45:                                               ; preds = %37
  %46 = load i64, ptr %7, align 8
  %47 = add i64 %46, 2
  store i64 %47, ptr %7, align 8
  br label %131

48:                                               ; preds = %37, %29, %21
  %49 = load i8, ptr %8, align 1
  %50 = sext i8 %49 to i32
  %51 = icmp eq i32 %50, 49
  br i1 %51, label %52, label %91

52:                                               ; preds = %48
  %53 = call noundef zeroext i1 @_ZNKSt7__cxx1112basic_stringIcSt11char_traitsIcESaIcEE5emptyEv(ptr noundef nonnull align 8 dereferenceable(32) %0) #19
  br i1 %53, label %91, label %54

54:                                               ; preds = %52
  %55 = call noundef nonnull align 1 dereferenceable(1) ptr @_ZNSt7__cxx1112basic_stringIcSt11char_traitsIcESaIcEE4backEv(ptr noundef nonnull align 8 dereferenceable(32) %0) #19
  %56 = load i8, ptr %55, align 1
  %57 = sext i8 %56 to i32
  %58 = icmp sge i32 %57, 48
  br i1 %58, label %59, label %64

59:                                               ; preds = %54
  %60 = call noundef nonnull align 1 dereferenceable(1) ptr @_ZNSt7__cxx1112basic_stringIcSt11char_traitsIcESaIcEE4backEv(ptr noundef nonnull align 8 dereferenceable(32) %0) #19
  %61 = load i8, ptr %60, align 1
  %62 = sext i8 %61 to i32
  %63 = icmp sle i32 %62, 57
  br i1 %63, label %91, label %64

64:                                               ; preds = %59, %54
  %65 = load ptr, ptr %6, align 8
  %66 = load i64, ptr %7, align 8
  %67 = add i64 %66, 1
  %68 = getelementptr inbounds i8, ptr %65, i64 %67
  %69 = load i8, ptr %68, align 1
  %70 = sext i8 %69 to i32
  %71 = icmp eq i32 %70, 57
  br i1 %71, label %72, label %91

72:                                               ; preds = %64
  %73 = load ptr, ptr %6, align 8
  %74 = load i64, ptr %7, align 8
  %75 = add i64 %74, 2
  %76 = getelementptr inbounds i8, ptr %73, i64 %75
  %77 = load i8, ptr %76, align 1
  %78 = sext i8 %77 to i32
  %79 = icmp sge i32 %78, 48
  br i1 %79, label %80, label %91

80:                                               ; preds = %72
  %81 = load ptr, ptr %6, align 8
  %82 = load i64, ptr %7, align 8
  %83 = add i64 %82, 2
  %84 = getelementptr inbounds i8, ptr %81, i64 %83
  %85 = load i8, ptr %84, align 1
  %86 = sext i8 %85 to i32
  %87 = icmp sle i32 %86, 57
  br i1 %87, label %88, label %91

88:                                               ; preds = %80
  %89 = load i64, ptr %7, align 8
  %90 = add i64 %89, 1
  store i64 %90, ptr %7, align 8
  br label %131

91:                                               ; preds = %80, %72, %64, %59, %52, %48
  %92 = load i8, ptr %8, align 1
  %93 = zext i8 %92 to i32
  %94 = icmp sgt i32 %93, 127
  br i1 %94, label %95, label %120

95:                                               ; preds = %91
  %96 = load ptr, ptr %6, align 8
  %97 = load i64, ptr %7, align 8
  %98 = getelementptr inbounds i8, ptr %96, i64 %97
  %99 = invoke noundef ptr @_ZN5osgeo4proj8metadataL21get_ascii_replacementEPKc(ptr noundef %98)
          to label %100 unwind label %115

100:                                              ; preds = %95
  store ptr %99, ptr %9, align 8
  %101 = load ptr, ptr %9, align 8
  %102 = icmp ne ptr %101, null
  br i1 %102, label %103, label %119

103:                                              ; preds = %100
  %104 = load ptr, ptr %9, align 8
  %105 = getelementptr inbounds %"struct.osgeo::proj::metadata::utf8_to_lower", ptr %104, i32 0, i32 1
  %106 = load i8, ptr %105, align 8
  invoke void @_ZNSt7__cxx1112basic_stringIcSt11char_traitsIcESaIcEE9push_backEc(ptr noundef nonnull align 8 dereferenceable(32) %0, i8 noundef signext %106)
          to label %107 unwind label %115

107:                                              ; preds = %103
  %108 = load ptr, ptr %9, align 8
  %109 = getelementptr inbounds %"struct.osgeo::proj::metadata::utf8_to_lower", ptr %108, i32 0, i32 0
  %110 = load ptr, ptr %109, align 8
  %111 = call i64 @strlen(ptr noundef %110) #8
  %112 = sub i64 %111, 1
  %113 = load i64, ptr %7, align 8
  %114 = add i64 %113, %112
  store i64 %114, ptr %7, align 8
  br label %131

115:                                              ; preds = %124, %120, %103, %95
  %116 = landingpad { ptr, i32 }
          cleanup
  %117 = extractvalue { ptr, i32 } %116, 0
  store ptr %117, ptr %10, align 8
  %118 = extractvalue { ptr, i32 } %116, 1
  store i32 %118, ptr %11, align 4
  call void @_ZNSt7__cxx1112basic_stringIcSt11char_traitsIcESaIcEED1Ev(ptr noundef nonnull align 8 dereferenceable(32) %0) #19
  br label %138

119:                                              ; preds = %100
  br label %120

120:                                              ; preds = %119, %91
  %121 = load i8, ptr %8, align 1
  %122 = invoke noundef zeroext i1 @_ZN5osgeo4proj8metadataL13isIgnoredCharEc(i8 noundef signext %121)
          to label %123 unwind label %115

123:                                              ; preds = %120
  br i1 %122, label %130, label %124

124:                                              ; preds = %123
  %125 = load i8, ptr %8, align 1
  %126 = sext i8 %125 to i32
  %127 = call i32 @tolower(i32 noundef %126) #8
  %128 = trunc i32 %127 to i8
  invoke void @_ZNSt7__cxx1112basic_stringIcSt11char_traitsIcESaIcEE9push_backEc(ptr noundef nonnull align 8 dereferenceable(32) %0, i8 noundef signext %128)
          to label %129 unwind label %115

129:                                              ; preds = %124
  br label %130

130:                                              ; preds = %129, %123
  br label %131

131:                                              ; preds = %130, %107, %88, %45
  %132 = load i64, ptr %7, align 8
  %133 = add i64 %132, 1
  store i64 %133, ptr %7, align 8
  br label %14, !llvm.loop !8

134:                                              ; preds = %14
  store i1 true, ptr %5, align 1
  %135 = load i1, ptr %5, align 1
  br i1 %135, label %137, label %136

136:                                              ; preds = %134
  call void @_ZNSt7__cxx1112basic_stringIcSt11char_traitsIcESaIcEED1Ev(ptr noundef nonnull align 8 dereferenceable(32) %0) #19
  br label %137

137:                                              ; preds = %136, %134
  ret void

138:                                              ; preds = %115
  %139 = load ptr, ptr %10, align 8
  %140 = load i32, ptr %11, align 4
  %141 = insertvalue { ptr, i32 } poison, ptr %139, 0
  %142 = insertvalue { ptr, i32 } %141, i32 %140, 1
  resume { ptr, i32 } %142
}