; Function Attrs: mustprogress uwtable
define hidden void @_ZN5osgeo4proj8metadata10Identifier16canonicalizeNameERKNSt7__cxx1112basic_stringIcSt11char_traitsIcESaIcEEE(ptr dead_on_unwind noalias nonnull writable sret(%"class.std::__cxx11::basic_string") align 8 %0, ptr noundef nonnull align 8 dereferenceable(32) %1) local_unnamed_addr #0 align 2 personality ptr @__gxx_personality_v0 {
  tail call void @_ZNSt7__cxx1112basic_stringIcSt11char_traitsIcESaIcEEC1Ev(ptr noundef nonnull align 8 dereferenceable(32) %0) #28
  %3 = tail call noundef ptr @_ZNKSt7__cxx1112basic_stringIcSt11char_traitsIcESaIcEE5c_strEv(ptr noundef nonnull align 8 dereferenceable(32) %1) #28
  br label %4

4:                                                ; preds = %_ZN5osgeo4proj8metadataL13isIgnoredCharEc.exit.thread, %2
  %.0 = phi i64 [ 0, %2 ], [ %55, %_ZN5osgeo4proj8metadataL13isIgnoredCharEc.exit.thread ]
  %5 = getelementptr inbounds i8, ptr %3, i64 %.0
  %6 = load i8, ptr %5, align 1
  %7 = sext i8 %6 to i32
  switch i8 %6, label %36 [
    i8 0, label %56
    i8 32, label %8
    i8 49, label %17
  ]

8:                                                ; preds = %4
  %9 = getelementptr i8, ptr %5, i64 1
  %10 = load i8, ptr %9, align 1
  %11 = icmp eq i8 %10, 43
  br i1 %11, label %12, label %.thread.thread38

12:                                               ; preds = %8
  %13 = add i64 %.0, 2
  %14 = getelementptr inbounds i8, ptr %3, i64 %13
  %15 = load i8, ptr %14, align 1
  %16 = icmp eq i8 %15, 32
  br i1 %16, label %_ZN5osgeo4proj8metadataL13isIgnoredCharEc.exit.thread, label %.thread.thread38

17:                                               ; preds = %4
  %18 = tail call noundef zeroext i1 @_ZNKSt7__cxx1112basic_stringIcSt11char_traitsIcESaIcEE5emptyEv(ptr noundef nonnull align 8 dereferenceable(32) %0) #28
  br i1 %18, label %_ZN5osgeo4proj8metadataL13isIgnoredCharEc.exit, label %19

19:                                               ; preds = %17
  %20 = tail call noundef nonnull align 1 dereferenceable(1) ptr @_ZNSt7__cxx1112basic_stringIcSt11char_traitsIcESaIcEE4backEv(ptr noundef nonnull align 8 dereferenceable(32) %0) #28
  %21 = load i8, ptr %20, align 1
  %22 = icmp sgt i8 %21, 47
  br i1 %22, label %23, label %27

23:                                               ; preds = %19
  %24 = tail call noundef nonnull align 1 dereferenceable(1) ptr @_ZNSt7__cxx1112basic_stringIcSt11char_traitsIcESaIcEE4backEv(ptr noundef nonnull align 8 dereferenceable(32) %0) #28
  %25 = load i8, ptr %24, align 1
  %26 = icmp slt i8 %25, 58
  br i1 %26, label %_ZN5osgeo4proj8metadataL13isIgnoredCharEc.exit, label %27

27:                                               ; preds = %23, %19
  %28 = add i64 %.0, 1
  %29 = getelementptr inbounds i8, ptr %3, i64 %28
  %30 = load i8, ptr %29, align 1
  %31 = icmp eq i8 %30, 57
  br i1 %31, label %32, label %_ZN5osgeo4proj8metadataL13isIgnoredCharEc.exit

32:                                               ; preds = %27
  %33 = getelementptr i8, ptr %5, i64 2
  %34 = load i8, ptr %33, align 1
  %35 = add i8 %34, -48
  %or.cond = icmp ult i8 %35, 10
  br i1 %or.cond, label %_ZN5osgeo4proj8metadataL13isIgnoredCharEc.exit.thread, label %_ZN5osgeo4proj8metadataL13isIgnoredCharEc.exit

36:                                               ; preds = %4
  %37 = icmp slt i8 %6, 0
  br i1 %37, label %.preheader, label %.thread

.preheader:                                       ; preds = %36, %45
  %.011.idx12.i = phi i64 [ %.011.add.i, %45 ], [ 0, %36 ]
  %.011.ptr13.i = getelementptr inbounds i8, ptr @_ZN5osgeo4proj8metadataL17map_utf8_to_lowerE, i64 %.011.idx12.i
  %38 = load ptr, ptr %.011.ptr13.i, align 16
  %39 = load i8, ptr %38, align 1
  %40 = icmp eq i8 %6, %39
  br i1 %40, label %41, label %45

41:                                               ; preds = %.preheader
  %42 = tail call i64 @strlen(ptr noundef nonnull dereferenceable(1) %38) #32
  %43 = tail call i32 @strncmp(ptr noundef nonnull %5, ptr noundef nonnull %38, i64 noundef %42) #32
  %44 = icmp eq i32 %43, 0
  br i1 %44, label %_ZN5osgeo4proj8metadataL21get_ascii_replacementEPKc.exit, label %45

45:                                               ; preds = %41, %.preheader
  %.011.add.i = add nuw nsw i64 %.011.idx12.i, 16
  %.not.i = icmp eq i64 %.011.add.i, 160
  br i1 %.not.i, label %.thread, label %.preheader

_ZN5osgeo4proj8metadataL21get_ascii_replacementEPKc.exit: ; preds = %41
  %gep = getelementptr inbounds i8, ptr getelementptr inbounds ([10 x %"struct.osgeo::proj::metadata::utf8_to_lower"], ptr @_ZN5osgeo4proj8metadataL17map_utf8_to_lowerE, i64 0, i64 0, i32 1), i64 %.011.idx12.i
  %46 = load i8, ptr %gep, align 8
  invoke void @_ZNSt7__cxx1112basic_stringIcSt11char_traitsIcESaIcEE9push_backEc(ptr noundef nonnull align 8 dereferenceable(32) %0, i8 noundef signext %46)
          to label %47 unwind label %51

47:                                               ; preds = %_ZN5osgeo4proj8metadataL21get_ascii_replacementEPKc.exit
  %48 = tail call i64 @strlen(ptr noundef nonnull dereferenceable(1) %38) #32
  %49 = add i64 %.0, -1
  %50 = add i64 %49, %48
  br label %_ZN5osgeo4proj8metadataL13isIgnoredCharEc.exit.thread

51:                                               ; preds = %_ZN5osgeo4proj8metadataL13isIgnoredCharEc.exit, %_ZN5osgeo4proj8metadataL21get_ascii_replacementEPKc.exit
  %52 = landingpad { ptr, i32 }
          cleanup
  tail call void @_ZNSt7__cxx1112basic_stringIcSt11char_traitsIcESaIcEED1Ev(ptr noundef nonnull align 8 dereferenceable(32) %0) #28
  resume { ptr, i32 } %52

.thread.thread38:                                 ; preds = %12, %8
  br label %_ZN5osgeo4proj8metadataL13isIgnoredCharEc.exit.thread

.thread:                                          ; preds = %45, %36
  switch i8 %6, label %_ZN5osgeo4proj8metadataL13isIgnoredCharEc.exit [
    i8 95, label %_ZN5osgeo4proj8metadataL13isIgnoredCharEc.exit.thread
    i8 47, label %_ZN5osgeo4proj8metadataL13isIgnoredCharEc.exit.thread
    i8 46, label %_ZN5osgeo4proj8metadataL13isIgnoredCharEc.exit.thread
    i8 45, label %_ZN5osgeo4proj8metadataL13isIgnoredCharEc.exit.thread
    i8 41, label %_ZN5osgeo4proj8metadataL13isIgnoredCharEc.exit.thread
    i8 40, label %_ZN5osgeo4proj8metadataL13isIgnoredCharEc.exit.thread
    i8 38, label %_ZN5osgeo4proj8metadataL13isIgnoredCharEc.exit.thread
    i8 32, label %_ZN5osgeo4proj8metadataL13isIgnoredCharEc.exit.thread
    i8 44, label %_ZN5osgeo4proj8metadataL13isIgnoredCharEc.exit.thread
  ]

_ZN5osgeo4proj8metadataL13isIgnoredCharEc.exit:   ; preds = %32, %27, %23, %17, %.thread
  %53 = tail call i32 @tolower(i32 noundef %7) #32
  %54 = trunc i32 %53 to i8
  invoke void @_ZNSt7__cxx1112basic_stringIcSt11char_traitsIcESaIcEE9push_backEc(ptr noundef nonnull align 8 dereferenceable(32) %0, i8 noundef signext %54)
          to label %_ZN5osgeo4proj8metadataL13isIgnoredCharEc.exit.thread unwind label %51

_ZN5osgeo4proj8metadataL13isIgnoredCharEc.exit.thread: ; preds = %.thread.thread38, %.thread, %.thread, %.thread, %.thread, %.thread, %.thread, %.thread, %.thread, %.thread, %32, %12, %_ZN5osgeo4proj8metadataL13isIgnoredCharEc.exit, %47
  %.1 = phi i64 [ %50, %47 ], [ %.0, %_ZN5osgeo4proj8metadataL13isIgnoredCharEc.exit ], [ %13, %12 ], [ %28, %32 ], [ %.0, %.thread ], [ %.0, %.thread ], [ %.0, %.thread ], [ %.0, %.thread ], [ %.0, %.thread ], [ %.0, %.thread ], [ %.0, %.thread ], [ %.0, %.thread ], [ %.0, %.thread ], [ %.0, %.thread.thread38 ]
  %55 = add i64 %.1, 1
  br label %4, !llvm.loop !95

56:                                               ; preds = %4
  ret void
}